target datalayout = "e-m:e-p270:32:32-p271:32:32-p272:64:64-i64:64-i128:128-f80:128-n8:16:32:64-S128"
target triple = "x86_64-pc-linux-gnu"

%struct.Agobj_s = type { %struct.Agtag_s, ptr }
%struct.Agtag_s = type { i32, i64 }
%struct.Agraphinfo_t = type { %struct.Agrec_s, ptr, ptr, %struct.boxf, [4 x %struct.pointf_s], i8, i8, i8, i8, i32, double, double, i16, ptr, ptr, ptr, ptr, i32, ptr, ptr, ptr, ptr, i16, i16, i32, ptr, ptr, ptr, ptr, ptr, i32, ptr, ptr, %struct.nlist_t, ptr, ptr, i32, i32, i8, i8, i32, i32, i32, ptr, ptr, ptr, ptr, i8, i8, i8, i8, i8 }
%struct.Agrec_s = type { ptr, ptr }
%struct.boxf = type { %struct.pointf_s, %struct.pointf_s }
%struct.pointf_s = type { double, double }
%struct.nlist_t = type { ptr, i64 }
%struct.Agnodeinfo_t = type { %struct.Agrec_s, ptr, ptr, %struct.pointf_s, double, double, %struct.boxf, double, double, double, double, double, ptr, ptr, ptr, i8, i8, i8, i8, i32, i32, i32, ptr, double, i8, i8, ptr, ptr, i8, i64, i8, i8, i8, ptr, ptr, %struct.elist, %struct.elist, %struct.elist, %struct.elist, %struct.elist, ptr, i32, ptr, i32, i32, double, %struct.elist, %struct.elist, %struct.elist, %struct.elist, ptr, i32, i32, i32, [1 x double] }
%struct.elist = type { ptr, i64 }

; Function Attrs: nounwind uwtable
define void @dot_scan_ranks(ptr noundef %0) #0 {
  %2 = alloca ptr, align 8
  %3 = alloca ptr, align 8
  %4 = alloca ptr, align 8
  store ptr %0, ptr %2, align 8, !tbaa !3
  call void @llvm.lifetime.start.p0(i64 8, ptr %3) #13
  call void @llvm.lifetime.start.p0(i64 8, ptr %4) #13
  store ptr null, ptr %4, align 8, !tbaa !8
  %5 = load ptr, ptr %2, align 8, !tbaa !3
  %6 = getelementptr inbounds nuw %struct.Agobj_s, ptr %5, i32 0, i32 1
  %7 = load ptr, ptr %6, align 8, !tbaa !10
  %8 = getelementptr inbounds nuw %struct.Agraphinfo_t, ptr %7, i32 0, i32 36
  store i32 2147483647, ptr %8, align 8, !tbaa !16
  %9 = load ptr, ptr %2, align 8, !tbaa !3
  %10 = getelementptr inbounds nuw %struct.Agobj_s, ptr %9, i32 0, i32 1
  %11 = load ptr, ptr %10, align 8, !tbaa !10
  %12 = getelementptr inbounds nuw %struct.Agraphinfo_t, ptr %11, i32 0, i32 37
  store i32 -1, ptr %12, align 4, !tbaa !34
  %13 = load ptr, ptr %2, align 8, !tbaa !3
  %14 = call ptr @agfstnode(ptr noundef %13)
  store ptr %14, ptr %3, align 8, !tbaa !8
  br label %15

15:                                               ; preds = %83, %1
  %16 = load ptr, ptr %3, align 8, !tbaa !8
  %17 = icmp ne ptr %16, null
  br i1 %17, label %18, label %87

18:                                               ; preds = %15
  %19 = load ptr, ptr %2, align 8, !tbaa !3
  %20 = getelementptr inbounds nuw %struct.Agobj_s, ptr %19, i32 0, i32 1
  %21 = load ptr, ptr %20, align 8, !tbaa !10
  %22 = getelementptr inbounds nuw %struct.Agraphinfo_t, ptr %21, i32 0, i32 37
  %23 = load i32, ptr %22, align 4, !tbaa !34
  %24 = load ptr, ptr %3, align 8, !tbaa !8
  %25 = getelementptr inbounds nuw %struct.Agobj_s, ptr %24, i32 0, i32 1
  %26 = load ptr, ptr %25, align 8, !tbaa !10
  %27 = getelementptr inbounds nuw %struct.Agnodeinfo_t, ptr %26, i32 0, i32 43
  %28 = load i32, ptr %27, align 8, !tbaa !35
  %29 = icmp slt i32 %23, %28
  br i1 %29, label %30, label %40

30:                                               ; preds = %18
  %31 = load ptr, ptr %3, align 8, !tbaa !8
  %32 = getelementptr inbounds nuw %struct.Agobj_s, ptr %31, i32 0, i32 1
  %33 = load ptr, ptr %32, align 8, !tbaa !10
  %34 = getelementptr inbounds nuw %struct.Agnodeinfo_t, ptr %33, i32 0, i32 43
  %35 = load i32, ptr %34, align 8, !tbaa !35
  %36 = load ptr, ptr %2, align 8, !tbaa !3
  %37 = getelementptr inbounds nuw %struct.Agobj_s, ptr %36, i32 0, i32 1
  %38 = load ptr, ptr %37, align 8, !tbaa !10
  %39 = getelementptr inbounds nuw %struct.Agraphinfo_t, ptr %38, i32 0, i32 37
  store i32 %35, ptr %39, align 4, !tbaa !34
  br label %40

40:                                               ; preds = %30, %18
  %41 = load ptr, ptr %2, align 8, !tbaa !3
  %42 = getelementptr inbounds nuw %struct.Agobj_s, ptr %41, i32 0, i32 1
  %43 = load ptr, ptr %42, align 8, !tbaa !10
  %44 = getelementptr inbounds nuw %struct.Agraphinfo_t, ptr %43, i32 0, i32 36
  %45 = load i32, ptr %44, align 8, !tbaa !16
  %46 = load ptr, ptr %3, align 8, !tbaa !8
  %47 = getelementptr inbounds nuw %struct.Agobj_s, ptr %46, i32 0, i32 1
  %48 = load ptr, ptr %47, align 8, !tbaa !10
  %49 = getelementptr inbounds nuw %struct.Agnodeinfo_t, ptr %48, i32 0, i32 43
  %50 = load i32, ptr %49, align 8, !tbaa !35
  %51 = icmp sgt i32 %45, %50
  br i1 %51, label %52, label %62

52:                                               ; preds = %40
  %53 = load ptr, ptr %3, align 8, !tbaa !8
  %54 = getelementptr inbounds nuw %struct.Agobj_s, ptr %53, i32 0, i32 1
  %55 = load ptr, ptr %54, align 8, !tbaa !10
  %56 = getelementptr inbounds nuw %struct.Agnodeinfo_t, ptr %55, i32 0, i32 43
  %57 = load i32, ptr %56, align 8, !tbaa !35
  %58 = load ptr, ptr %2, align 8, !tbaa !3
  %59 = getelementptr inbounds nuw %struct.Agobj_s, ptr %58, i32 0, i32 1
  %60 = load ptr, ptr %59, align 8, !tbaa !10
  %61 = getelementptr inbounds nuw %struct.Agraphinfo_t, ptr %60, i32 0, i32 36
  store i32 %57, ptr %61, align 8, !tbaa !16
  br label %62

62:                                               ; preds = %52, %40
  %63 = load ptr, ptr %4, align 8, !tbaa !8
  %64 = icmp eq ptr %63, null
  br i1 %64, label %65, label %67

65:                                               ; preds = %62
  %66 = load ptr, ptr %3, align 8, !tbaa !8
  store ptr %66, ptr %4, align 8, !tbaa !8
  br label %82

67:                                               ; preds = %62
  %68 = load ptr, ptr %3, align 8, !tbaa !8
  %69 = getelementptr inbounds nuw %struct.Agobj_s, ptr %68, i32 0, i32 1
  %70 = load ptr, ptr %69, align 8, !tbaa !10
  %71 = getelementptr inbounds nuw %struct.Agnodeinfo_t, ptr %70, i32 0, i32 43
  %72 = load i32, ptr %71, align 8, !tbaa !35
  %73 = load ptr, ptr %4, align 8, !tbaa !8
  %74 = getelementptr inbounds nuw %struct.Agobj_s, ptr %73, i32 0, i32 1
  %75 = load ptr, ptr %74, align 8, !tbaa !10
  %76 = getelementptr inbounds nuw %struct.Agnodeinfo_t, ptr %75, i32 0, i32 43
  %77 = load i32, ptr %76, align 8, !tbaa !35
  %78 = icmp slt i32 %72, %77
  br i1 %78, label %79, label %81

79:                                               ; preds = %67
  %80 = load ptr, ptr %3, align 8, !tbaa !8
  store ptr %80, ptr %4, align 8, !tbaa !8
  br label %81

81:                                               ; preds = %79, %67
  br label %82

82:                                               ; preds = %81, %65
  br label %83

83:                                               ; preds = %82
  %84 = load ptr, ptr %2, align 8, !tbaa !3
  %85 = load ptr, ptr %3, align 8, !tbaa !8
  %86 = call ptr @agnxtnode(ptr noundef %84, ptr noundef %85)
  store ptr %86, ptr %3, align 8, !tbaa !8
  br label %15, !llvm.loop !42

87:                                               ; preds = %15
  %88 = load ptr, ptr %4, align 8, !tbaa !8
  %89 = load ptr, ptr %2, align 8, !tbaa !3
  %90 = getelementptr inbounds nuw %struct.Agobj_s, ptr %89, i32 0, i32 1
  %91 = load ptr, ptr %90, align 8, !tbaa !10
  %92 = getelementptr inbounds nuw %struct.Agraphinfo_t, ptr %91, i32 0, i32 45
  store ptr %88, ptr %92, align 8, !tbaa !44
  call void @llvm.lifetime.end.p0(i64 8, ptr %4) #13
  call void @llvm.lifetime.end.p0(i64 8, ptr %3) #13
  ret void
}