; Function Attrs: nounwind uwtable
define void @dot_scan_ranks(ptr noundef %0) local_unnamed_addr #0 {
  %2 = getelementptr inbounds nuw i8, ptr %0, i64 16
  %3 = load ptr, ptr %2, align 8, !tbaa !3
  %4 = getelementptr inbounds nuw i8, ptr %3, i64 336
  store i32 2147483647, ptr %4, align 8, !tbaa !12
  %5 = getelementptr inbounds nuw i8, ptr %3, i64 340
  store i32 -1, ptr %5, align 4, !tbaa !32
  %6 = tail call ptr @agfstnode(ptr noundef %0) #15
  %.not24 = icmp eq ptr %6, null
  br i1 %.not24, label %._crit_edge, label %.lr.ph

.lr.ph:                                           ; preds = %1, %29
  %.026 = phi ptr [ %.1, %29 ], [ null, %1 ]
  %.02125 = phi ptr [ %30, %29 ], [ %6, %1 ]
  %7 = load ptr, ptr %2, align 8, !tbaa !3
  %8 = getelementptr inbounds nuw i8, ptr %7, i64 340
  %9 = load i32, ptr %8, align 4, !tbaa !32
  %10 = getelementptr inbounds nuw i8, ptr %.02125, i64 16
  %11 = load ptr, ptr %10, align 8, !tbaa !3
  %12 = getelementptr inbounds nuw i8, ptr %11, i64 360
  %13 = load i32, ptr %12, align 8, !tbaa !33
  %14 = icmp slt i32 %9, %13
  br i1 %14, label %15, label %16

15:                                               ; preds = %.lr.ph
  store i32 %13, ptr %8, align 4, !tbaa !32
  br label %16

16:                                               ; preds = %15, %.lr.ph
  %17 = getelementptr inbounds nuw i8, ptr %7, i64 336
  %18 = load i32, ptr %17, align 8, !tbaa !12
  %19 = icmp sgt i32 %18, %13
  br i1 %19, label %20, label %21

20:                                               ; preds = %16
  store i32 %13, ptr %17, align 8, !tbaa !12
  br label %21

21:                                               ; preds = %20, %16
  %22 = icmp eq ptr %.026, null
  br i1 %22, label %29, label %23

23:                                               ; preds = %21
  %24 = getelementptr inbounds nuw i8, ptr %.026, i64 16
  %25 = load ptr, ptr %24, align 8, !tbaa !3
  %26 = getelementptr inbounds nuw i8, ptr %25, i64 360
  %27 = load i32, ptr %26, align 8, !tbaa !33
  %28 = icmp slt i32 %13, %27
  %spec.select = select i1 %28, ptr %.02125, ptr %.026
  br label %29

29:                                               ; preds = %23, %21
  %.1 = phi ptr [ %.02125, %21 ], [ %spec.select, %23 ]
  %30 = tail call ptr @agnxtnode(ptr noundef nonnull %0, ptr noundef nonnull %.02125) #15
  %.not = icmp eq ptr %30, null
  br i1 %.not, label %._crit_edge, label %.lr.ph, !llvm.loop !40

._crit_edge:                                      ; preds = %29, %1
  %.0.lcssa = phi ptr [ null, %1 ], [ %.1, %29 ]
  %31 = load ptr, ptr %2, align 8, !tbaa !3
  %32 = getelementptr inbounds nuw i8, ptr %31, i64 376
  store ptr %.0.lcssa, ptr %32, align 8, !tbaa !42
  ret void
}